target datalayout = "e-m:e-p270:32:32-p271:32:32-p272:64:64-i64:64-i128:128-f80:128-n8:16:32:64-S128"
target triple = "x86_64-pc-linux-gnu"

%struct.AVThreadMessageQueue = type { ptr, %union.pthread_mutex_t, %union.pthread_cond_t, %union.pthread_cond_t, i32, i32, i32, ptr }
%union.pthread_mutex_t = type { %struct.__pthread_mutex_s }
%struct.__pthread_mutex_s = type { i32, i32, i32, i32, i32, i16, i16, %struct.__pthread_internal_list }
%struct.__pthread_internal_list = type { ptr, ptr }
%union.pthread_cond_t = type { %struct.__pthread_cond_s }
%struct.__pthread_cond_s = type { %union.__atomic_wide_counter, %union.__atomic_wide_counter, [2 x i32], [2 x i32], i32, i32, [2 x i32] }
%union.__atomic_wide_counter = type { i64 }

; Function Attrs: nounwind uwtable
define internal i32 @free_func_wrap(ptr noundef %0, ptr noundef %1, ptr noundef %2) #0 {
  %4 = alloca ptr, align 8
  %5 = alloca ptr, align 8
  %6 = alloca ptr, align 8
  %7 = alloca ptr, align 8
  %8 = alloca ptr, align 8
  %9 = alloca i64, align 8
  store ptr %0, ptr %4, align 8, !tbaa !18
  store ptr %1, ptr %5, align 8, !tbaa !18
  store ptr %2, ptr %6, align 8, !tbaa !27
  call void @llvm.lifetime.start.p0(i64 8, ptr %7) #4
  %10 = load ptr, ptr %4, align 8, !tbaa !18
  store ptr %10, ptr %7, align 8, !tbaa !12
  call void @llvm.lifetime.start.p0(i64 8, ptr %8) #4
  %11 = load ptr, ptr %5, align 8, !tbaa !18
  store ptr %11, ptr %8, align 8, !tbaa !29
  call void @llvm.lifetime.start.p0(i64 8, ptr %9) #4
  store i64 0, ptr %9, align 8, !tbaa !20
  br label %12

12:                                               ; preds = %30, %3
  %13 = load i64, ptr %9, align 8, !tbaa !20
  %14 = load ptr, ptr %6, align 8, !tbaa !27
  %15 = load i64, ptr %14, align 8, !tbaa !20
  %16 = icmp ult i64 %13, %15
  br i1 %16, label %18, label %17

17:                                               ; preds = %12
  call void @llvm.lifetime.end.p0(i64 8, ptr %9) #4
  br label %33

18:                                               ; preds = %12
  %19 = load ptr, ptr %7, align 8, !tbaa !12
  %20 = getelementptr inbounds nuw %struct.AVThreadMessageQueue, ptr %19, i32 0, i32 7
  %21 = load ptr, ptr %20, align 8, !tbaa !19
  %22 = load ptr, ptr %8, align 8, !tbaa !29
  %23 = load i64, ptr %9, align 8, !tbaa !20
  %24 = load ptr, ptr %7, align 8, !tbaa !12
  %25 = getelementptr inbounds nuw %struct.AVThreadMessageQueue, ptr %24, i32 0, i32 6
  %26 = load i32, ptr %25, align 8, !tbaa !17
  %27 = zext i32 %26 to i64
  %28 = mul i64 %23, %27
  %29 = getelementptr inbounds nuw i8, ptr %22, i64 %28
  call void %21(ptr noundef %29)
  br label %30

30:                                               ; preds = %18
  %31 = load i64, ptr %9, align 8, !tbaa !20
  %32 = add i64 %31, 1
  store i64 %32, ptr %9, align 8, !tbaa !20
  br label %12, !llvm.loop !31

33:                                               ; preds = %17
  call void @llvm.lifetime.end.p0(i64 8, ptr %8) #4
  call void @llvm.lifetime.end.p0(i64 8, ptr %7) #4
  ret i32 0
}