; Function Attrs: nounwind uwtable
define internal noundef i32 @free_func_wrap(ptr noundef readonly captures(none) %0, ptr noundef %1, ptr noundef readonly captures(none) %2) #0 {
  %4 = load i64, ptr %2, align 8, !tbaa !15
  %.not = icmp eq i64 %4, 0
  br i1 %.not, label %._crit_edge, label %.lr.ph

.lr.ph:                                           ; preds = %3
  %5 = getelementptr inbounds nuw i8, ptr %0, i64 160
  %6 = getelementptr inbounds nuw i8, ptr %0, i64 152
  br label %7

._crit_edge:                                      ; preds = %7, %3
  ret i32 0

7:                                                ; preds = %.lr.ph, %7
  %.08 = phi i64 [ 0, %.lr.ph ], [ %13, %7 ]
  %8 = load ptr, ptr %5, align 8, !tbaa !14
  %9 = load i32, ptr %6, align 8, !tbaa !11
  %10 = zext i32 %9 to i64
  %11 = mul i64 %.08, %10
  %12 = getelementptr inbounds nuw i8, ptr %1, i64 %11
  tail call void %8(ptr noundef %12) #5
  %13 = add nuw i64 %.08, 1
  %14 = load i64, ptr %2, align 8, !tbaa !15
  %15 = icmp ult i64 %13, %14
  br i1 %15, label %7, label %._crit_edge, !llvm.loop !22
}